; Function Attrs: mustprogress uwtable
define void @_ZN7Imf_3_216GenericInputFile30readMagicNumberAndVersionFieldERNS_7IStreamERi(ptr nocapture noundef nonnull readnone align 8 dereferenceable(8) %this, ptr noundef nonnull align 8 dereferenceable(40) %is, ptr nocapture noundef nonnull align 4 dereferenceable(4) %version) local_unnamed_addr #7 align 2 personality ptr @__gxx_personality_v0 {
entry:
  %b.i10 = alloca [4 x i8], align 4
  %b.i = alloca [4 x i8], align 4
  %_iex_throw_s = alloca %"class.std::__cxx11::basic_stringstream", align 8
  %_iex_throw_s25 = alloca %"class.std::__cxx11::basic_stringstream", align 8
  call void @llvm.lifetime.start.p0(i64 4, ptr nonnull %b.i)
  %vtable.i.i.i = load ptr, ptr %is, align 8
  %vfn.i.i.i = getelementptr inbounds i8, ptr %vtable.i.i.i, i64 24
  %0 = load ptr, ptr %vfn.i.i.i, align 8
  %call.i.i.i = call noundef zeroext i1 %0(ptr noundef nonnull align 8 dereferenceable(40) %is, ptr noundef nonnull %b.i, i32 noundef 4)
  %1 = load i32, ptr %b.i, align 4
  call void @llvm.lifetime.end.p0(i64 4, ptr nonnull %b.i)
  call void @llvm.lifetime.start.p0(i64 4, ptr nonnull %b.i10)
  %vtable.i.i.i11 = load ptr, ptr %is, align 8
  %vfn.i.i.i12 = getelementptr inbounds i8, ptr %vtable.i.i.i11, i64 24
  %2 = load ptr, ptr %vfn.i.i.i12, align 8
  %call.i.i.i13 = call noundef zeroext i1 %2(ptr noundef nonnull align 8 dereferenceable(40) %is, ptr noundef nonnull %b.i10, i32 noundef 4)
  %3 = load i32, ptr %b.i10, align 4
  store i32 %3, ptr %version, align 4
  call void @llvm.lifetime.end.p0(i64 4, ptr nonnull %b.i10)
  %cmp.not = icmp eq i32 %1, 20000630
  br i1 %cmp.not, label %if.end, label %if.then

if.then:                                          ; preds = %entry
  %exception = call ptr @__cxa_allocate_exception(i64 72) #10
  invoke void @_ZN7Iex_3_28InputExcC1EPKc(ptr noundef nonnull align 8 dereferenceable(72) %exception, ptr noundef nonnull @.str)
          to label %invoke.cont unwind label %lpad

invoke.cont:                                      ; preds = %if.then
  call void @__cxa_throw(ptr nonnull %exception, ptr nonnull @_ZTIN7Iex_3_28InputExcE, ptr nonnull @_ZN7Iex_3_28InputExcD1Ev) #12
  unreachable

lpad:                                             ; preds = %if.then
  %4 = landingpad { ptr, i32 }
          cleanup
  call void @__cxa_free_exception(ptr %exception) #10
  br label %eh.resume

if.end:                                           ; preds = %entry
  %and.i = and i32 %3, 255
  %cmp2.not = icmp eq i32 %and.i, 2
  br i1 %cmp2.not, label %if.end20, label %do.body

do.body:                                          ; preds = %if.end
  call void @_Z13iex_debugTrapv()
  call void @_ZNSt7__cxx1118basic_stringstreamIcSt11char_traitsIcESaIcEEC1Ev(ptr noundef nonnull align 8 dereferenceable(128) %_iex_throw_s)
  %add.ptr = getelementptr inbounds i8, ptr %_iex_throw_s, i64 16
  %call6 = invoke noundef nonnull align 8 dereferenceable(8) ptr @_ZStlsISt11char_traitsIcEERSt13basic_ostreamIcT_ES5_PKc(ptr noundef nonnull align 8 dereferenceable(8) %add.ptr, ptr noundef nonnull @.str.1)
          to label %invoke.cont5 unwind label %lpad4

invoke.cont5:                                     ; preds = %do.body
  %5 = load i32, ptr %version, align 4
  %and.i14 = and i32 %5, 255
  %call10 = invoke noundef nonnull align 8 dereferenceable(8) ptr @_ZNSolsEi(ptr noundef nonnull align 8 dereferenceable(8) %call6, i32 noundef %and.i14)
          to label %invoke.cont9 unwind label %lpad4

invoke.cont9:                                     ; preds = %invoke.cont5
  %call12 = invoke noundef nonnull align 8 dereferenceable(8) ptr @_ZStlsISt11char_traitsIcEERSt13basic_ostreamIcT_ES5_PKc(ptr noundef nonnull align 8 dereferenceable(8) %call10, ptr noundef nonnull @.str.2)
          to label %invoke.cont11 unwind label %lpad4

invoke.cont11:                                    ; preds = %invoke.cont9
  %call14 = invoke noundef nonnull align 8 dereferenceable(8) ptr @_ZNSolsEi(ptr noundef nonnull align 8 dereferenceable(8) %call12, i32 noundef 2)
          to label %invoke.cont13 unwind label %lpad4

invoke.cont13:                                    ; preds = %invoke.cont11
  %call16 = invoke noundef nonnull align 8 dereferenceable(8) ptr @_ZStlsISt11char_traitsIcEERSt13basic_ostreamIcT_ES5_PKc(ptr noundef nonnull align 8 dereferenceable(8) %call14, ptr noundef nonnull @.str.3)
          to label %invoke.cont15 unwind label %lpad4

invoke.cont15:                                    ; preds = %invoke.cont13
  %exception17 = call ptr @__cxa_allocate_exception(i64 72) #10
  invoke void @_ZN7Iex_3_28InputExcC1ERNSt7__cxx1118basic_stringstreamIcSt11char_traitsIcESaIcEEE(ptr noundef nonnull align 8 dereferenceable(72) %exception17, ptr noundef nonnull align 8 dereferenceable(128) %_iex_throw_s)
          to label %invoke.cont19 unwind label %lpad18

invoke.cont19:                                    ; preds = %invoke.cont15
  invoke void @__cxa_throw(ptr nonnull %exception17, ptr nonnull @_ZTIN7Iex_3_28InputExcE, ptr nonnull @_ZN7Iex_3_28InputExcD1Ev) #12
          to label %unreachable unwind label %lpad4

lpad4:                                            ; preds = %invoke.cont19, %invoke.cont13, %invoke.cont11, %invoke.cont9, %invoke.cont5, %do.body
  %6 = landingpad { ptr, i32 }
          cleanup
  br label %ehcleanup

lpad18:                                           ; preds = %invoke.cont15
  %7 = landingpad { ptr, i32 }
          cleanup
  call void @__cxa_free_exception(ptr %exception17) #10
  br label %ehcleanup

ehcleanup:                                        ; preds = %lpad18, %lpad4
  %.pn6 = phi { ptr, i32 } [ %6, %lpad4 ], [ %7, %lpad18 ]
  call void @_ZNSt7__cxx1118basic_stringstreamIcSt11char_traitsIcESaIcEED1Ev(ptr noundef nonnull align 8 dereferenceable(128) %_iex_throw_s) #10
  br label %eh.resume

if.end20:                                         ; preds = %if.end
  %and.i16 = and i32 %3, -7936
  %tobool.not.i = icmp eq i32 %and.i16, 0
  br i1 %tobool.not.i, label %if.end36, label %do.body24

do.body24:                                        ; preds = %if.end20
  call void @_Z13iex_debugTrapv()
  call void @_ZNSt7__cxx1118basic_stringstreamIcSt11char_traitsIcESaIcEEC1Ev(ptr noundef nonnull align 8 dereferenceable(128) %_iex_throw_s25)
  %add.ptr26 = getelementptr inbounds i8, ptr %_iex_throw_s25, i64 16
  %call29 = invoke noundef nonnull align 8 dereferenceable(8) ptr @_ZStlsISt11char_traitsIcEERSt13basic_ostreamIcT_ES5_PKc(ptr noundef nonnull align 8 dereferenceable(8) %add.ptr26, ptr noundef nonnull @.str.4)
          to label %invoke.cont28 unwind label %lpad27

invoke.cont28:                                    ; preds = %do.body24
  %exception30 = call ptr @__cxa_allocate_exception(i64 72) #10
  invoke void @_ZN7Iex_3_28InputExcC1ERNSt7__cxx1118basic_stringstreamIcSt11char_traitsIcESaIcEEE(ptr noundef nonnull align 8 dereferenceable(72) %exception30, ptr noundef nonnull align 8 dereferenceable(128) %_iex_throw_s25)
          to label %invoke.cont32 unwind label %lpad31

invoke.cont32:                                    ; preds = %invoke.cont28
  invoke void @__cxa_throw(ptr nonnull %exception30, ptr nonnull @_ZTIN7Iex_3_28InputExcE, ptr nonnull @_ZN7Iex_3_28InputExcD1Ev) #12
          to label %unreachable unwind label %lpad27

lpad27:                                           ; preds = %invoke.cont32, %do.body24
  %8 = landingpad { ptr, i32 }
          cleanup
  br label %ehcleanup34

lpad31:                                           ; preds = %invoke.cont28
  %9 = landingpad { ptr, i32 }
          cleanup
  call void @__cxa_free_exception(ptr %exception30) #10
  br label %ehcleanup34

ehcleanup34:                                      ; preds = %lpad31, %lpad27
  %.pn = phi { ptr, i32 } [ %8, %lpad27 ], [ %9, %lpad31 ]
  call void @_ZNSt7__cxx1118basic_stringstreamIcSt11char_traitsIcESaIcEED1Ev(ptr noundef nonnull align 8 dereferenceable(128) %_iex_throw_s25) #10
  br label %eh.resume

if.end36:                                         ; preds = %if.end20
  ret void

eh.resume:                                        ; preds = %ehcleanup34, %ehcleanup, %lpad
  %.pn8 = phi { ptr, i32 } [ %4, %lpad ], [ %.pn6, %ehcleanup ], [ %.pn, %ehcleanup34 ]
  resume { ptr, i32 } %.pn8

unreachable:                                      ; preds = %invoke.cont32, %invoke.cont19
  unreachable
}